target datalayout = "e-m:e-p270:32:32-p271:32:32-p272:64:64-i64:64-i128:128-f80:128-n8:16:32:64-S128"
target triple = "x86_64-pc-linux-gnu"

%struct.sigpipe_ignore = type { %struct.sigaction, i8 }
%struct.sigaction = type { %union.anon.1, %struct.__sigset_t, i32, ptr }
%union.anon.1 = type { ptr }
%struct.__sigset_t = type { [16 x i64] }
%struct.Curl_easy = type { i32, i64, i64, ptr, %struct.Curl_llist_node, %struct.Curl_llist_node, i32, i32, %struct.Curl_message, %struct.easy_pollset, %struct.Names, ptr, ptr, ptr, ptr, %struct.SingleRequest, %struct.UserDefined, ptr, ptr, ptr, %struct.Progress, %struct.UrlState, ptr, %struct.PureInfo, %struct.curl_tlssessioninfo }
%struct.Curl_llist_node = type { ptr, ptr, ptr, ptr }
%struct.Curl_message = type { %struct.Curl_llist_node, %struct.CURLMsg }
%struct.CURLMsg = type { i32, ptr, %union.anon }
%union.anon = type { ptr }
%struct.easy_pollset = type { [5 x i32], i32, [5 x i8] }
%struct.Names = type { ptr, i32 }
%struct.SingleRequest = type <{ i64, i64, i64, i64, %struct.curltime, i32, i32, i32, i32, i64, i32, i32, i8, i8, [2 x i8], i32, ptr, ptr, %struct.bufq, i64, i64, ptr, ptr, %union.anon.0, ptr, i8, i32, [3 x i8] }>
%struct.curltime = type { i64, i32 }
%struct.bufq = type { ptr, ptr, ptr, ptr, i64, i64, i64, i32 }
%union.anon.0 = type { ptr }
%struct.UserDefined = type <{ ptr, ptr, ptr, ptr, ptr, ptr, i64, i64, i64, ptr, ptr, i64, ptr, ptr, ptr, ptr, ptr, ptr, ptr, ptr, ptr, ptr, ptr, ptr, ptr, ptr, ptr, ptr, ptr, ptr, ptr, ptr, ptr, ptr, ptr, i64, i64, i64, i64, i64, i64, i64, i64, i64, ptr, ptr, %struct.curl_mimepart, ptr, ptr, ptr, i64, %struct.ssl_config_data, %struct.ssl_config_data, ptr, i16, i8, i8, %struct.ssl_general_config, i32, i32, i32, [4 x i8], ptr, ptr, i64, i32, i8, i8, i8, i8, ptr, ptr, ptr, i32, [4 x i8], [74 x ptr], [8 x ptr], i32, i32, i32, [4 x i8], ptr, i32, [4 x i8], ptr, ptr, ptr, ptr, ptr, i32, i32, i32, i32, i32, i32, i32, i32, i64, ptr, ptr, i64, ptr, i64, ptr, ptr, ptr, ptr, i32, i16, i16, i16, i8, i8, i8, i8, i8, i8, i8, i8, i64, [6 x i8] }>
%struct.curl_mimepart = type { ptr, ptr, i32, i32, ptr, ptr, ptr, ptr, ptr, ptr, ptr, ptr, ptr, ptr, ptr, i64, %struct.mime_state, ptr, %struct.mime_encoder_state, i64 }
%struct.mime_state = type { i32, ptr, i64 }
%struct.mime_encoder_state = type { i64, i64, i64, [256 x i8] }
%struct.ssl_config_data = type { %struct.ssl_primary_config, i64, ptr, ptr, ptr, ptr, ptr, ptr, ptr, i16 }
%struct.ssl_primary_config = type { ptr, ptr, ptr, ptr, ptr, ptr, ptr, ptr, ptr, ptr, ptr, ptr, ptr, ptr, i8, i32, i8, i8 }
%struct.ssl_general_config = type { i32 }
%struct.Progress = type { i64, %struct.pgrs_dir, %struct.pgrs_dir, i64, i64, i32, i32, i64, i64, i64, i64, i64, i64, i64, i64, i64, %struct.curltime, %struct.curltime, %struct.curltime, %struct.curltime, %struct.curltime, [6 x i64], [6 x %struct.curltime], i32, i8 }
%struct.pgrs_dir = type { i64, i64, i64, %struct.pgrs_measure }
%struct.pgrs_measure = type { %struct.curltime, i64 }
%struct.UrlState = type { %struct.curltime, i64, i64, %struct.dynbuf, ptr, i64, ptr, i32, i32, i32, ptr, i32, i64, i32, ptr, %struct.digestdata, %struct.digestdata, %struct.auth, %struct.auth, %struct.Curl_async, ptr, i8, %struct.curltime, %struct.Curl_tree, %struct.Curl_llist, [15 x %struct.time_node], ptr, ptr, i64, i64, i64, i64, [32 x i8], i64, ptr, ptr, ptr, %struct.urlpieces, ptr, ptr, ptr, ptr, ptr, i64, %struct.dynbuf, %struct.Curl_llist, [2 x %struct.curl_header], ptr, i32, ptr, ptr, %struct.store_netrc, %struct.dynamically_allocated_data, i8, i8, i8, i8, i32 }
%struct.digestdata = type { ptr, ptr, ptr, ptr, ptr, ptr, i32, i8, i8 }
%struct.auth = type { i64, i64, i64, i8 }
%struct.Curl_async = type { ptr, ptr, ptr, ptr, i32, i32, i8 }
%struct.Curl_tree = type { ptr, ptr, ptr, ptr, %struct.curltime, ptr }
%struct.time_node = type { %struct.Curl_llist_node, %struct.curltime, i32 }
%struct.urlpieces = type { ptr, ptr, ptr, ptr, ptr, ptr, ptr, ptr }
%struct.dynbuf = type { ptr, i64, i64, i64 }
%struct.Curl_llist = type { ptr, ptr, ptr, i64 }
%struct.curl_header = type { ptr, ptr, i64, i64, i32, ptr }
%struct.store_netrc = type { %struct.dynbuf, ptr, i8 }
%struct.dynamically_allocated_data = type { ptr, ptr, ptr, ptr, ptr, ptr, ptr, ptr, ptr, ptr, ptr, ptr, ptr, ptr }
%struct.PureInfo = type { i32, i32, i32, i64, i64, i64, i64, i64, i64, i64, ptr, ptr, i64, i32, %struct.ip_quadruple, i32, ptr, i32, %struct.curl_certinfo, i32, i8 }
%struct.ip_quadruple = type { [46 x i8], [46 x i8], i32, i32 }
%struct.curl_certinfo = type { i32, ptr }
%struct.curl_tlssessioninfo = type { i32, ptr }

@.str.1 = private unnamed_addr constant [25 x i8] c"CONNECT_ONLY is required\00", align 1
@.str.2 = private unnamed_addr constant [28 x i8] c"Failed to get recent socket\00", align 1

; Function Attrs: nounwind uwtable
define internal void @sigpipe_restore(ptr noundef %0) #4 {
  %2 = alloca ptr, align 8
  store ptr %0, ptr %2, align 8, !tbaa !98
  %3 = load ptr, ptr %2, align 8, !tbaa !98
  %4 = getelementptr inbounds nuw %struct.sigpipe_ignore, ptr %3, i32 0, i32 1
  %5 = load i8, ptr %4, align 8, !tbaa !100, !range !15, !noundef !16
  %6 = trunc i8 %5 to i1
  br i1 %6, label %11, label %7

7:                                                ; preds = %1
  %8 = load ptr, ptr %2, align 8, !tbaa !98
  %9 = getelementptr inbounds nuw %struct.sigpipe_ignore, ptr %8, i32 0, i32 0
  %10 = call i32 @sigaction(i32 noundef 13, ptr noundef %9, ptr noundef null) #10
  br label %11

11:                                               ; preds = %7, %1
  ret void
}

; Function Attrs: nounwind uwtable
define internal void @sigpipe_ignore(ptr noundef %0, ptr noundef %1) #4 {
  %3 = alloca ptr, align 8
  %4 = alloca ptr, align 8
  %5 = alloca %struct.sigaction, align 8
  store ptr %0, ptr %3, align 8, !tbaa !21
  store ptr %1, ptr %4, align 8, !tbaa !98
  %6 = load ptr, ptr %3, align 8, !tbaa !21
  %7 = getelementptr inbounds nuw %struct.Curl_easy, ptr %6, i32 0, i32 16
  %8 = getelementptr inbounds nuw %struct.UserDefined, ptr %7, i32 0, i32 119
  %9 = load i64, ptr %8, align 2
  %10 = lshr i64 %9, 34
  %11 = and i64 %10, 1
  %12 = trunc i64 %11 to i32
  %13 = icmp ne i32 %12, 0
  %14 = load ptr, ptr %4, align 8, !tbaa !98
  %15 = getelementptr inbounds nuw %struct.sigpipe_ignore, ptr %14, i32 0, i32 1
  %16 = zext i1 %13 to i8
  store i8 %16, ptr %15, align 8, !tbaa !100
  %17 = load ptr, ptr %3, align 8, !tbaa !21
  %18 = getelementptr inbounds nuw %struct.Curl_easy, ptr %17, i32 0, i32 16
  %19 = getelementptr inbounds nuw %struct.UserDefined, ptr %18, i32 0, i32 119
  %20 = load i64, ptr %19, align 2
  %21 = lshr i64 %20, 34
  %22 = and i64 %21, 1
  %23 = trunc i64 %22 to i32
  %24 = icmp ne i32 %23, 0
  br i1 %24, label %33, label %25

25:                                               ; preds = %2
  call void @llvm.lifetime.start.p0(i64 152, ptr %5) #10
  %26 = load ptr, ptr %4, align 8, !tbaa !98
  %27 = getelementptr inbounds nuw %struct.sigpipe_ignore, ptr %26, i32 0, i32 0
  %28 = call i32 @sigaction(i32 noundef 13, ptr noundef null, ptr noundef %27) #10
  %29 = load ptr, ptr %4, align 8, !tbaa !98
  %30 = getelementptr inbounds nuw %struct.sigpipe_ignore, ptr %29, i32 0, i32 0
  call void @llvm.memcpy.p0.p0.i64(ptr align 8 %5, ptr align 8 %30, i64 152, i1 false), !tbaa.struct !104
  %31 = getelementptr inbounds nuw %struct.sigaction, ptr %5, i32 0, i32 0
  store ptr inttoptr (i64 1 to ptr), ptr %31, align 8, !tbaa !89
  %32 = call i32 @sigaction(i32 noundef 13, ptr noundef %5, ptr noundef null) #10
  call void @llvm.lifetime.end.p0(i64 152, ptr %5) #10
  br label %33

33:                                               ; preds = %25, %2
  ret void
}

; Function Attrs: nounwind uwtable
define internal i32 @easy_connection(ptr noundef %0, ptr noundef %1) #4 {
  %3 = alloca i32, align 4
  %4 = alloca ptr, align 8
  %5 = alloca ptr, align 8
  %6 = alloca i32, align 4
  %7 = alloca i32, align 4
  store ptr %0, ptr %4, align 8, !tbaa !21
  store ptr %1, ptr %5, align 8, !tbaa !143
  call void @llvm.lifetime.start.p0(i64 4, ptr %6) #10
  %8 = load ptr, ptr %4, align 8, !tbaa !21
  %9 = icmp ne ptr %8, null
  br i1 %9, label %11, label %10

10:                                               ; preds = %2
  store i32 43, ptr %3, align 4
  store i32 1, ptr %7, align 4
  br label %30

11:                                               ; preds = %2
  %12 = load ptr, ptr %4, align 8, !tbaa !21
  %13 = getelementptr inbounds nuw %struct.Curl_easy, ptr %12, i32 0, i32 16
  %14 = getelementptr inbounds nuw %struct.UserDefined, ptr %13, i32 0, i32 119
  %15 = load i64, ptr %14, align 2
  %16 = and i64 %15, 1
  %17 = trunc i64 %16 to i32
  %18 = icmp ne i32 %17, 0
  br i1 %18, label %21, label %19

19:                                               ; preds = %11
  %20 = load ptr, ptr %4, align 8, !tbaa !21
  call void (ptr, ptr, ...) @Curl_failf(ptr noundef %20, ptr noundef @.str.1)
  store i32 1, ptr %3, align 4
  store i32 1, ptr %7, align 4
  br label %30

21:                                               ; preds = %11
  %22 = load ptr, ptr %4, align 8, !tbaa !21
  %23 = load ptr, ptr %5, align 8, !tbaa !143
  %24 = call i32 @Curl_getconnectinfo(ptr noundef %22, ptr noundef %23)
  store i32 %24, ptr %6, align 4, !tbaa !7
  %25 = load i32, ptr %6, align 4, !tbaa !7
  %26 = icmp eq i32 %25, -1
  br i1 %26, label %27, label %29

27:                                               ; preds = %21
  %28 = load ptr, ptr %4, align 8, !tbaa !21
  call void (ptr, ptr, ...) @Curl_failf(ptr noundef %28, ptr noundef @.str.2)
  store i32 1, ptr %3, align 4
  store i32 1, ptr %7, align 4
  br label %30

29:                                               ; preds = %21
  store i32 0, ptr %3, align 4
  store i32 1, ptr %7, align 4
  br label %30

30:                                               ; preds = %29, %27, %19, %10
  call void @llvm.lifetime.end.p0(i64 4, ptr %6) #10
  %31 = load i32, ptr %3, align 4
  ret i32 %31
}

; Function Attrs: nounwind uwtable
define hidden i32 @Curl_senddata(ptr noundef %0, ptr noundef %1, i64 noundef %2, ptr noundef %3) #4 {
  %5 = alloca i32, align 4
  %6 = alloca ptr, align 8
  %7 = alloca ptr, align 8
  %8 = alloca i64, align 8
  %9 = alloca ptr, align 8
  %10 = alloca i32, align 4
  %11 = alloca ptr, align 8
  %12 = alloca %struct.sigpipe_ignore, align 8
  %13 = alloca i32, align 4
  store ptr %0, ptr %6, align 8, !tbaa !21
  store ptr %1, ptr %7, align 8, !tbaa !9
  store i64 %2, ptr %8, align 8, !tbaa !3
  store ptr %3, ptr %9, align 8, !tbaa !141
  call void @llvm.lifetime.start.p0(i64 4, ptr %10) #10
  call void @llvm.lifetime.start.p0(i64 8, ptr %11) #10
  store ptr null, ptr %11, align 8, !tbaa !93
  call void @llvm.lifetime.start.p0(i64 160, ptr %12) #10
  %14 = load ptr, ptr %9, align 8, !tbaa !141
  store i64 0, ptr %14, align 8, !tbaa !3
  %15 = load ptr, ptr %6, align 8, !tbaa !21
  %16 = call i32 @easy_connection(ptr noundef %15, ptr noundef %11)
  store i32 %16, ptr %10, align 4, !tbaa !7
  %17 = load i32, ptr %10, align 4, !tbaa !7
  %18 = icmp ne i32 %17, 0
  br i1 %18, label %19, label %21

19:                                               ; preds = %4
  %20 = load i32, ptr %10, align 4, !tbaa !7
  store i32 %20, ptr %5, align 4
  store i32 1, ptr %13, align 4
  br label %44

21:                                               ; preds = %4
  %22 = load ptr, ptr %6, align 8, !tbaa !21
  %23 = getelementptr inbounds nuw %struct.Curl_easy, ptr %22, i32 0, i32 3
  %24 = load ptr, ptr %23, align 8, !tbaa !92
  %25 = icmp ne ptr %24, null
  br i1 %25, label %29, label %26

26:                                               ; preds = %21
  %27 = load ptr, ptr %6, align 8, !tbaa !21
  %28 = load ptr, ptr %11, align 8, !tbaa !93
  call void @Curl_attach_connection(ptr noundef %27, ptr noundef %28)
  br label %29

29:                                               ; preds = %26, %21
  %30 = load ptr, ptr %6, align 8, !tbaa !21
  call void @sigpipe_ignore(ptr noundef %30, ptr noundef %12)
  %31 = load ptr, ptr %6, align 8, !tbaa !21
  %32 = load ptr, ptr %7, align 8, !tbaa !9
  %33 = load i64, ptr %8, align 8, !tbaa !3
  %34 = load ptr, ptr %9, align 8, !tbaa !141
  %35 = call i32 @Curl_conn_send(ptr noundef %31, i32 noundef 0, ptr noundef %32, i64 noundef %33, i1 noundef zeroext false, ptr noundef %34)
  store i32 %35, ptr %10, align 4, !tbaa !7
  call void @sigpipe_restore(ptr noundef %12)
  %36 = load i32, ptr %10, align 4, !tbaa !7
  %37 = icmp ne i32 %36, 0
  br i1 %37, label %38, label %42

38:                                               ; preds = %29
  %39 = load i32, ptr %10, align 4, !tbaa !7
  %40 = icmp ne i32 %39, 81
  br i1 %40, label %41, label %42

41:                                               ; preds = %38
  store i32 55, ptr %5, align 4
  store i32 1, ptr %13, align 4
  br label %44

42:                                               ; preds = %38, %29
  %43 = load i32, ptr %10, align 4, !tbaa !7
  store i32 %43, ptr %5, align 4
  store i32 1, ptr %13, align 4
  br label %44

44:                                               ; preds = %42, %41, %19
  call void @llvm.lifetime.end.p0(i64 160, ptr %12) #10
  call void @llvm.lifetime.end.p0(i64 8, ptr %11) #10
  call void @llvm.lifetime.end.p0(i64 4, ptr %10) #10
  %45 = load i32, ptr %5, align 4
  ret i32 %45
}