; Function Attrs: nounwind uwtable
define hidden range(i32 0, 82) i32 @Curl_senddata(ptr noundef %0, ptr noundef %1, i64 noundef %2, ptr noundef initializes((0, 8)) %3) local_unnamed_addr #5 {
  %5 = alloca %struct.sigaction, align 8
  %6 = alloca ptr, align 8
  %7 = alloca %struct.sigpipe_ignore, align 8
  call void @llvm.lifetime.start.p0(i64 8, ptr nonnull %6) #11
  store ptr null, ptr %6, align 8, !tbaa !131
  call void @llvm.lifetime.start.p0(i64 160, ptr nonnull %7) #11
  store i64 0, ptr %3, align 8, !tbaa !101
  %.not.i = icmp eq ptr %0, null
  br i1 %.not.i, label %easy_connection.exit.thread, label %8

8:                                                ; preds = %4
  %9 = getelementptr inbounds nuw i8, ptr %0, i64 2658
  %10 = load i64, ptr %9, align 2
  %11 = and i64 %10, 1
  %.not8.i = icmp eq i64 %11, 0
  br i1 %.not8.i, label %.sink.split.i, label %12

12:                                               ; preds = %8
  %13 = call i32 @Curl_getconnectinfo(ptr noundef nonnull %0, ptr noundef nonnull %6) #11
  %14 = icmp eq i32 %13, -1
  br i1 %14, label %.sink.split.i, label %easy_connection.exit

.sink.split.i:                                    ; preds = %12, %8
  %.str.2.sink.i = phi ptr [ @.str.1, %8 ], [ @.str.2, %12 ]
  call void (ptr, ptr, ...) @Curl_failf(ptr noundef nonnull %0, ptr noundef nonnull %.str.2.sink.i) #11
  br label %easy_connection.exit.thread

easy_connection.exit:                             ; preds = %12
  %15 = getelementptr inbounds nuw i8, ptr %0, i64 24
  %16 = load ptr, ptr %15, align 8, !tbaa !82
  %.not16 = icmp eq ptr %16, null
  br i1 %.not16, label %17, label %19

17:                                               ; preds = %easy_connection.exit
  %18 = load ptr, ptr %6, align 8, !tbaa !131
  call void @Curl_attach_connection(ptr noundef nonnull %0, ptr noundef %18) #11
  br label %19

19:                                               ; preds = %17, %easy_connection.exit
  %20 = load i64, ptr %9, align 2
  %21 = getelementptr inbounds nuw i8, ptr %7, i64 152
  %22 = lshr i64 %20, 34
  %23 = trunc i64 %22 to i8
  %24 = and i8 %23, 1
  store i8 %24, ptr %21, align 8, !tbaa !85
  %25 = and i64 %20, 17179869184
  %.not.i19 = icmp eq i64 %25, 0
  br i1 %.not.i19, label %26, label %sigpipe_ignore.exit

26:                                               ; preds = %19
  call void @llvm.lifetime.start.p0(i64 152, ptr nonnull %5) #11
  %27 = call i32 @sigaction(i32 noundef 13, ptr noundef null, ptr noundef nonnull %7) #11
  call void @llvm.memcpy.p0.p0.i64(ptr noundef nonnull align 8 dereferenceable(152) %5, ptr noundef nonnull align 8 dereferenceable(152) %7, i64 152, i1 false), !tbaa.struct !90
  store ptr inttoptr (i64 1 to ptr), ptr %5, align 8, !tbaa !79
  %28 = call i32 @sigaction(i32 noundef 13, ptr noundef nonnull %5, ptr noundef null) #11
  call void @llvm.lifetime.end.p0(i64 152, ptr nonnull %5) #11
  br label %sigpipe_ignore.exit

sigpipe_ignore.exit:                              ; preds = %19, %26
  %29 = call i32 @Curl_conn_send(ptr noundef nonnull %0, i32 noundef 0, ptr noundef %1, i64 noundef %2, i1 noundef zeroext false, ptr noundef nonnull %3) #11
  %30 = load i8, ptr %21, align 8, !tbaa !85, !range !92, !noundef !93
  %31 = trunc nuw i8 %30 to i1
  br i1 %31, label %sigpipe_restore.exit, label %32

32:                                               ; preds = %sigpipe_ignore.exit
  %33 = call i32 @sigaction(i32 noundef 13, ptr noundef nonnull %7, ptr noundef null) #11
  br label %sigpipe_restore.exit

sigpipe_restore.exit:                             ; preds = %sigpipe_ignore.exit, %32
  %switch.selectcmp = icmp eq i32 %29, 0
  %switch.select = select i1 %switch.selectcmp, i32 0, i32 55
  %switch.selectcmp17 = icmp eq i32 %29, 81
  %switch.select18 = select i1 %switch.selectcmp17, i32 81, i32 %switch.select
  br label %easy_connection.exit.thread

easy_connection.exit.thread:                      ; preds = %.sink.split.i, %4, %sigpipe_restore.exit
  %.0 = phi i32 [ %switch.select18, %sigpipe_restore.exit ], [ 1, %.sink.split.i ], [ 43, %4 ]
  call void @llvm.lifetime.end.p0(i64 160, ptr nonnull %7) #11
  call void @llvm.lifetime.end.p0(i64 8, ptr nonnull %6) #11
  ret i32 %.0
}